target datalayout = "e-m:e-p270:32:32-p271:32:32-p272:64:64-i64:64-i128:128-f80:128-n8:16:32:64-S128"
target triple = "x86_64-pc-linux-gnu"

%struct.anon = type { i64, double, double, double, double, double, double, double, double, double, double, double }

@.str.26 = private unnamed_addr constant [19 x i8] c"N_VGetArrayPointer\00", align 1
@stderr = external global ptr, align 8
@.str.76 = private unnamed_addr constant [55 x i8] c"\0ASUNDIALS_ERROR: %s() failed - returned NULL pointer\0A\0A\00", align 1
@.str.77 = private unnamed_addr constant [46 x i8] c"\0ASUNDIALS_ERROR: %s() failed with flag = %d\0A\0A\00", align 1
@.str.78 = private unnamed_addr constant [53 x i8] c"\0AMEMORY_ERROR: %s() failed - returned NULL pointer\0A\0A\00", align 1

; Function Attrs: nounwind uwtable
define internal i32 @check_retval(ptr noundef %0, ptr noundef %1, i32 noundef %2) #0 {
  %4 = alloca i32, align 4
  %5 = alloca ptr, align 8
  %6 = alloca ptr, align 8
  %7 = alloca i32, align 4
  %8 = alloca ptr, align 8
  %9 = alloca i32, align 4
  store ptr %0, ptr %5, align 8, !tbaa !17
  store ptr %1, ptr %6, align 8, !tbaa !32
  store i32 %2, ptr %7, align 4, !tbaa !4
  call void @llvm.lifetime.start.p0(i64 8, ptr %8) #8
  %10 = load i32, ptr %7, align 4, !tbaa !4
  %11 = icmp eq i32 %10, 0
  br i1 %11, label %12, label %19

12:                                               ; preds = %3
  %13 = load ptr, ptr %5, align 8, !tbaa !17
  %14 = icmp eq ptr %13, null
  br i1 %14, label %15, label %19

15:                                               ; preds = %12
  %16 = load ptr, ptr @stderr, align 8, !tbaa !55
  %17 = load ptr, ptr %6, align 8, !tbaa !32
  %18 = call i32 (ptr, ptr, ...) @fprintf(ptr noundef %16, ptr noundef @.str.76, ptr noundef %17) #8
  store i32 1, ptr %4, align 4
  store i32 1, ptr %9, align 4
  br label %47

19:                                               ; preds = %12, %3
  %20 = load i32, ptr %7, align 4, !tbaa !4
  %21 = icmp eq i32 %20, 1
  br i1 %21, label %22, label %34

22:                                               ; preds = %19
  %23 = load ptr, ptr %5, align 8, !tbaa !17
  store ptr %23, ptr %8, align 8, !tbaa !57
  %24 = load ptr, ptr %8, align 8, !tbaa !57
  %25 = load i32, ptr %24, align 4, !tbaa !4
  %26 = icmp slt i32 %25, 0
  br i1 %26, label %27, label %33

27:                                               ; preds = %22
  %28 = load ptr, ptr @stderr, align 8, !tbaa !55
  %29 = load ptr, ptr %6, align 8, !tbaa !32
  %30 = load ptr, ptr %8, align 8, !tbaa !57
  %31 = load i32, ptr %30, align 4, !tbaa !4
  %32 = call i32 (ptr, ptr, ...) @fprintf(ptr noundef %28, ptr noundef @.str.77, ptr noundef %29, i32 noundef %31) #8
  store i32 1, ptr %4, align 4
  store i32 1, ptr %9, align 4
  br label %47

33:                                               ; preds = %22
  br label %45

34:                                               ; preds = %19
  %35 = load i32, ptr %7, align 4, !tbaa !4
  %36 = icmp eq i32 %35, 2
  br i1 %36, label %37, label %44

37:                                               ; preds = %34
  %38 = load ptr, ptr %5, align 8, !tbaa !17
  %39 = icmp eq ptr %38, null
  br i1 %39, label %40, label %44

40:                                               ; preds = %37
  %41 = load ptr, ptr @stderr, align 8, !tbaa !55
  %42 = load ptr, ptr %6, align 8, !tbaa !32
  %43 = call i32 (ptr, ptr, ...) @fprintf(ptr noundef %41, ptr noundef @.str.78, ptr noundef %42) #8
  store i32 1, ptr %4, align 4
  store i32 1, ptr %9, align 4
  br label %47

44:                                               ; preds = %37, %34
  br label %45

45:                                               ; preds = %44, %33
  br label %46

46:                                               ; preds = %45
  store i32 0, ptr %4, align 4
  store i32 1, ptr %9, align 4
  br label %47

47:                                               ; preds = %46, %40, %27, %15
  call void @llvm.lifetime.end.p0(i64 8, ptr %8) #8
  %48 = load i32, ptr %4, align 4
  ret i32 %48
}

; Function Attrs: nounwind uwtable
define internal i32 @ff(double noundef %0, ptr noundef %1, ptr noundef %2, ptr noundef %3) #0 {
  %5 = alloca i32, align 4
  %6 = alloca double, align 8
  %7 = alloca ptr, align 8
  %8 = alloca ptr, align 8
  %9 = alloca ptr, align 8
  %10 = alloca ptr, align 8
  %11 = alloca i64, align 8
  %12 = alloca double, align 8
  %13 = alloca double, align 8
  %14 = alloca double, align 8
  %15 = alloca ptr, align 8
  %16 = alloca ptr, align 8
  %17 = alloca double, align 8
  %18 = alloca double, align 8
  %19 = alloca double, align 8
  %20 = alloca i64, align 8
  %21 = alloca i32, align 4
  store double %0, ptr %6, align 8, !tbaa !11
  store ptr %1, ptr %7, align 8, !tbaa !15
  store ptr %2, ptr %8, align 8, !tbaa !15
  store ptr %3, ptr %9, align 8, !tbaa !17
  call void @llvm.lifetime.start.p0(i64 8, ptr %10) #8
  %22 = load ptr, ptr %9, align 8, !tbaa !17
  store ptr %22, ptr %10, align 8, !tbaa !17
  call void @llvm.lifetime.start.p0(i64 8, ptr %11) #8
  %23 = load ptr, ptr %10, align 8, !tbaa !17
  %24 = getelementptr inbounds nuw %struct.anon, ptr %23, i32 0, i32 0
  %25 = load i64, ptr %24, align 8, !tbaa !34
  store i64 %25, ptr %11, align 8, !tbaa !13
  call void @llvm.lifetime.start.p0(i64 8, ptr %12) #8
  %26 = load ptr, ptr %10, align 8, !tbaa !17
  %27 = getelementptr inbounds nuw %struct.anon, ptr %26, i32 0, i32 2
  %28 = load double, ptr %27, align 8, !tbaa !36
  store double %28, ptr %12, align 8, !tbaa !11
  call void @llvm.lifetime.start.p0(i64 8, ptr %13) #8
  %29 = load ptr, ptr %10, align 8, !tbaa !17
  %30 = getelementptr inbounds nuw %struct.anon, ptr %29, i32 0, i32 3
  %31 = load double, ptr %30, align 8, !tbaa !37
  store double %31, ptr %13, align 8, !tbaa !11
  call void @llvm.lifetime.start.p0(i64 8, ptr %14) #8
  %32 = load ptr, ptr %10, align 8, !tbaa !17
  %33 = getelementptr inbounds nuw %struct.anon, ptr %32, i32 0, i32 11
  %34 = load double, ptr %33, align 8, !tbaa !44
  store double %34, ptr %14, align 8, !tbaa !11
  call void @llvm.lifetime.start.p0(i64 8, ptr %15) #8
  store ptr null, ptr %15, align 8, !tbaa !28
  call void @llvm.lifetime.start.p0(i64 8, ptr %16) #8
  store ptr null, ptr %16, align 8, !tbaa !28
  call void @llvm.lifetime.start.p0(i64 8, ptr %17) #8
  call void @llvm.lifetime.start.p0(i64 8, ptr %18) #8
  call void @llvm.lifetime.start.p0(i64 8, ptr %19) #8
  call void @llvm.lifetime.start.p0(i64 8, ptr %20) #8
  %35 = load ptr, ptr %7, align 8, !tbaa !15
  %36 = call ptr @N_VGetArrayPointer(ptr noundef %35)
  store ptr %36, ptr %15, align 8, !tbaa !28
  %37 = load ptr, ptr %15, align 8, !tbaa !28
  %38 = call i32 @check_retval(ptr noundef %37, ptr noundef @.str.26, i32 noundef 0)
  %39 = icmp ne i32 %38, 0
  br i1 %39, label %40, label %41

40:                                               ; preds = %4
  store i32 1, ptr %5, align 4
  store i32 1, ptr %21, align 4
  br label %146

41:                                               ; preds = %4
  %42 = load ptr, ptr %8, align 8, !tbaa !15
  %43 = call ptr @N_VGetArrayPointer(ptr noundef %42)
  store ptr %43, ptr %16, align 8, !tbaa !28
  %44 = load ptr, ptr %16, align 8, !tbaa !28
  %45 = call i32 @check_retval(ptr noundef %44, ptr noundef @.str.26, i32 noundef 0)
  %46 = icmp ne i32 %45, 0
  br i1 %46, label %47, label %48

47:                                               ; preds = %41
  store i32 1, ptr %5, align 4
  store i32 1, ptr %21, align 4
  br label %146

48:                                               ; preds = %41
  %49 = load ptr, ptr %8, align 8, !tbaa !15
  call void @N_VConst(double noundef 0.000000e+00, ptr noundef %49)
  store i64 1, ptr %20, align 8, !tbaa !13
  br label %50

50:                                               ; preds = %118, %48
  %51 = load i64, ptr %20, align 8, !tbaa !13
  %52 = load i64, ptr %11, align 8, !tbaa !13
  %53 = sub nsw i64 %52, 1
  %54 = icmp slt i64 %51, %53
  br i1 %54, label %55, label %121

55:                                               ; preds = %50
  %56 = load ptr, ptr %15, align 8, !tbaa !28
  %57 = load i64, ptr %20, align 8, !tbaa !13
  %58 = mul nsw i64 3, %57
  %59 = add nsw i64 %58, 0
  %60 = getelementptr inbounds double, ptr %56, i64 %59
  %61 = load double, ptr %60, align 8, !tbaa !11
  store double %61, ptr %17, align 8, !tbaa !11
  %62 = load ptr, ptr %15, align 8, !tbaa !28
  %63 = load i64, ptr %20, align 8, !tbaa !13
  %64 = mul nsw i64 3, %63
  %65 = add nsw i64 %64, 1
  %66 = getelementptr inbounds double, ptr %62, i64 %65
  %67 = load double, ptr %66, align 8, !tbaa !11
  store double %67, ptr %18, align 8, !tbaa !11
  %68 = load ptr, ptr %15, align 8, !tbaa !28
  %69 = load i64, ptr %20, align 8, !tbaa !13
  %70 = mul nsw i64 3, %69
  %71 = add nsw i64 %70, 2
  %72 = getelementptr inbounds double, ptr %68, i64 %71
  %73 = load double, ptr %72, align 8, !tbaa !11
  store double %73, ptr %19, align 8, !tbaa !11
  %74 = load double, ptr %12, align 8, !tbaa !11
  %75 = load double, ptr %19, align 8, !tbaa !11
  %76 = fadd double %75, 1.000000e+00
  %77 = load double, ptr %17, align 8, !tbaa !11
  %78 = fneg double %76
  %79 = call double @llvm.fmuladd.f64(double %78, double %77, double %74)
  %80 = load double, ptr %18, align 8, !tbaa !11
  %81 = load double, ptr %17, align 8, !tbaa !11
  %82 = fmul double %80, %81
  %83 = load double, ptr %17, align 8, !tbaa !11
  %84 = call double @llvm.fmuladd.f64(double %82, double %83, double %79)
  %85 = load ptr, ptr %16, align 8, !tbaa !28
  %86 = load i64, ptr %20, align 8, !tbaa !13
  %87 = mul nsw i64 3, %86
  %88 = add nsw i64 %87, 0
  %89 = getelementptr inbounds double, ptr %85, i64 %88
  store double %84, ptr %89, align 8, !tbaa !11
  %90 = load double, ptr %19, align 8, !tbaa !11
  %91 = load double, ptr %17, align 8, !tbaa !11
  %92 = load double, ptr %18, align 8, !tbaa !11
  %93 = load double, ptr %17, align 8, !tbaa !11
  %94 = fmul double %92, %93
  %95 = load double, ptr %17, align 8, !tbaa !11
  %96 = fmul double %94, %95
  %97 = fneg double %96
  %98 = call double @llvm.fmuladd.f64(double %90, double %91, double %97)
  %99 = load ptr, ptr %16, align 8, !tbaa !28
  %100 = load i64, ptr %20, align 8, !tbaa !13
  %101 = mul nsw i64 3, %100
  %102 = add nsw i64 %101, 1
  %103 = getelementptr inbounds double, ptr %99, i64 %102
  store double %98, ptr %103, align 8, !tbaa !11
  %104 = load double, ptr %13, align 8, !tbaa !11
  %105 = load double, ptr %19, align 8, !tbaa !11
  %106 = fsub double %104, %105
  %107 = load double, ptr %14, align 8, !tbaa !11
  %108 = fdiv double %106, %107
  %109 = load double, ptr %19, align 8, !tbaa !11
  %110 = load double, ptr %17, align 8, !tbaa !11
  %111 = fneg double %109
  %112 = call double @llvm.fmuladd.f64(double %111, double %110, double %108)
  %113 = load ptr, ptr %16, align 8, !tbaa !28
  %114 = load i64, ptr %20, align 8, !tbaa !13
  %115 = mul nsw i64 3, %114
  %116 = add nsw i64 %115, 2
  %117 = getelementptr inbounds double, ptr %113, i64 %116
  store double %112, ptr %117, align 8, !tbaa !11
  br label %118

118:                                              ; preds = %55
  %119 = load i64, ptr %20, align 8, !tbaa !13
  %120 = add nsw i64 %119, 1
  store i64 %120, ptr %20, align 8, !tbaa !13
  br label %50

121:                                              ; preds = %50
  %122 = load ptr, ptr %16, align 8, !tbaa !28
  %123 = getelementptr inbounds double, ptr %122, i64 2
  store double 0.000000e+00, ptr %123, align 8, !tbaa !11
  %124 = load ptr, ptr %16, align 8, !tbaa !28
  %125 = getelementptr inbounds double, ptr %124, i64 1
  store double 0.000000e+00, ptr %125, align 8, !tbaa !11
  %126 = load ptr, ptr %16, align 8, !tbaa !28
  %127 = getelementptr inbounds double, ptr %126, i64 0
  store double 0.000000e+00, ptr %127, align 8, !tbaa !11
  %128 = load ptr, ptr %16, align 8, !tbaa !28
  %129 = load i64, ptr %11, align 8, !tbaa !13
  %130 = sub nsw i64 %129, 1
  %131 = mul nsw i64 3, %130
  %132 = add nsw i64 %131, 2
  %133 = getelementptr inbounds double, ptr %128, i64 %132
  store double 0.000000e+00, ptr %133, align 8, !tbaa !11
  %134 = load ptr, ptr %16, align 8, !tbaa !28
  %135 = load i64, ptr %11, align 8, !tbaa !13
  %136 = sub nsw i64 %135, 1
  %137 = mul nsw i64 3, %136
  %138 = add nsw i64 %137, 1
  %139 = getelementptr inbounds double, ptr %134, i64 %138
  store double 0.000000e+00, ptr %139, align 8, !tbaa !11
  %140 = load ptr, ptr %16, align 8, !tbaa !28
  %141 = load i64, ptr %11, align 8, !tbaa !13
  %142 = sub nsw i64 %141, 1
  %143 = mul nsw i64 3, %142
  %144 = add nsw i64 %143, 0
  %145 = getelementptr inbounds double, ptr %140, i64 %144
  store double 0.000000e+00, ptr %145, align 8, !tbaa !11
  store i32 0, ptr %5, align 4
  store i32 1, ptr %21, align 4
  br label %146

146:                                              ; preds = %121, %47, %40
  call void @llvm.lifetime.end.p0(i64 8, ptr %20) #8
  call void @llvm.lifetime.end.p0(i64 8, ptr %19) #8
  call void @llvm.lifetime.end.p0(i64 8, ptr %18) #8
  call void @llvm.lifetime.end.p0(i64 8, ptr %17) #8
  call void @llvm.lifetime.end.p0(i64 8, ptr %16) #8
  call void @llvm.lifetime.end.p0(i64 8, ptr %15) #8
  call void @llvm.lifetime.end.p0(i64 8, ptr %14) #8
  call void @llvm.lifetime.end.p0(i64 8, ptr %13) #8
  call void @llvm.lifetime.end.p0(i64 8, ptr %12) #8
  call void @llvm.lifetime.end.p0(i64 8, ptr %11) #8
  call void @llvm.lifetime.end.p0(i64 8, ptr %10) #8
  %147 = load i32, ptr %5, align 4
  ret i32 %147
}