; Function Attrs: nounwind uwtable
define internal range(i32 0, 2) i32 @ff(double %0, ptr noundef %1, ptr noundef %2, ptr noundef readonly captures(none) %3) #0 {
  %5 = load i64, ptr %3, align 8, !tbaa !16
  %6 = getelementptr inbounds nuw i8, ptr %3, i64 16
  %7 = load double, ptr %6, align 8, !tbaa !20
  %8 = getelementptr inbounds nuw i8, ptr %3, i64 24
  %9 = load double, ptr %8, align 8, !tbaa !21
  %10 = getelementptr inbounds nuw i8, ptr %3, i64 88
  %11 = load double, ptr %10, align 8, !tbaa !28
  %12 = tail call ptr @N_VGetArrayPointer(ptr noundef %1) #16
  %13 = icmp eq ptr %12, null
  br i1 %13, label %check_retval.exit, label %16

check_retval.exit:                                ; preds = %4
  %14 = load ptr, ptr @stderr, align 8, !tbaa !12
  %15 = tail call i32 (ptr, ptr, ...) @fprintf(ptr noundef %14, ptr noundef nonnull @.str.76, ptr noundef nonnull @.str.26) #17
  br label %50

16:                                               ; preds = %4
  %17 = tail call ptr @N_VGetArrayPointer(ptr noundef %2) #16
  %18 = icmp eq ptr %17, null
  br i1 %18, label %check_retval.exit54, label %21

check_retval.exit54:                              ; preds = %16
  %19 = load ptr, ptr @stderr, align 8, !tbaa !12
  %20 = tail call i32 (ptr, ptr, ...) @fprintf(ptr noundef %19, ptr noundef nonnull @.str.76, ptr noundef nonnull @.str.26) #17
  br label %50

21:                                               ; preds = %16
  tail call void @N_VConst(double noundef 0.000000e+00, ptr noundef %2) #16
  %22 = add i64 %5, -1
  %23 = icmp sgt i64 %5, 2
  br i1 %23, label %.lr.ph, label %._crit_edge

.lr.ph:                                           ; preds = %21, %.lr.ph
  %.059 = phi i64 [ %48, %.lr.ph ], [ 1, %21 ]
  %24 = mul nuw nsw i64 %.059, 3
  %25 = getelementptr inbounds nuw double, ptr %12, i64 %24
  %26 = load double, ptr %25, align 8, !tbaa !31
  %27 = add nuw nsw i64 %24, 1
  %28 = getelementptr inbounds nuw double, ptr %12, i64 %27
  %29 = load double, ptr %28, align 8, !tbaa !31
  %30 = add nuw nsw i64 %24, 2
  %31 = getelementptr inbounds nuw double, ptr %12, i64 %30
  %32 = load double, ptr %31, align 8, !tbaa !31
  %33 = fadd double %32, 1.000000e+00
  %34 = fneg double %33
  %35 = tail call double @llvm.fmuladd.f64(double %34, double %26, double %7)
  %36 = fmul double %26, %29
  %37 = tail call double @llvm.fmuladd.f64(double %36, double %26, double %35)
  %38 = getelementptr inbounds nuw double, ptr %17, i64 %24
  store double %37, ptr %38, align 8, !tbaa !31
  %39 = fneg double %26
  %40 = fmul double %36, %39
  %41 = tail call double @llvm.fmuladd.f64(double %32, double %26, double %40)
  %42 = getelementptr inbounds nuw double, ptr %17, i64 %27
  store double %41, ptr %42, align 8, !tbaa !31
  %43 = fsub double %9, %32
  %44 = fdiv double %43, %11
  %45 = fneg double %32
  %46 = tail call double @llvm.fmuladd.f64(double %45, double %26, double %44)
  %47 = getelementptr inbounds nuw double, ptr %17, i64 %30
  store double %46, ptr %47, align 8, !tbaa !31
  %48 = add nuw nsw i64 %.059, 1
  %exitcond.not = icmp eq i64 %48, %22
  br i1 %exitcond.not, label %._crit_edge, label %.lr.ph

._crit_edge:                                      ; preds = %.lr.ph, %21
  %.idx = mul i64 %22, 24
  %49 = getelementptr i8, ptr %17, i64 %.idx
  tail call void @llvm.memset.p0.i64(ptr noundef nonnull align 8 dereferenceable(24) %17, i8 0, i64 24, i1 false)
  tail call void @llvm.memset.p0.i64(ptr noundef nonnull align 8 dereferenceable(24) %49, i8 0, i64 24, i1 false)
  br label %50

50:                                               ; preds = %check_retval.exit54, %check_retval.exit, %._crit_edge
  %.050 = phi i32 [ 0, %._crit_edge ], [ 1, %check_retval.exit ], [ 1, %check_retval.exit54 ]
  ret i32 %.050
}